LX51 LINKER/LOCATER V4.66.97.0                                                          12/04/2021  21:32:10  PAGE 1


LX51 LINKER/LOCATER V4.66.97.0, INVOKED BY:
C:\KEIL_V5\C51\BIN\LX51.EXE .\BUILD\TEMPLATE\LCD1602.O, .\BUILD\TEMPLATE\MAIN.O TO .\BUILD\TEMPLATE\6-2¾ØÕó¼üÅÌ×öÒ»¸ö¼ÆË
>> ãÆ÷ PRINT (.\build\template\6-2¾ØÕó¼üÅÌ×öÒ»¸ö¼ÆËãÆ÷.map) REMOVEUNUSED


CPU MODE:     8051 MODE
MEMORY MODEL: SMALL


INPUT MODULES INCLUDED:
  .\BUILD\TEMPLATE\LCD1602.O (LCD1602)
         COMMENT TYPE 0: C51 V9.60.0.0
  .\BUILD\TEMPLATE\MAIN.O (MAIN)
         COMMENT TYPE 0: C51 V9.60.0.0
  C:\KEIL_V5\C51\LIB\C51S.LIB (?C_STARTUP)
         COMMENT TYPE 1: A51 / ASM51 Assembler
  C:\KEIL_V5\C51\LIB\C51S.LIB (?C?CLDOPTR)
         COMMENT TYPE 1: A51 / ASM51 Assembler
  C:\KEIL_V5\C51\LIB\C51S.LIB (?C?IMUL)
         COMMENT TYPE 1: A51 / ASM51 Assembler
  C:\KEIL_V5\C51\LIB\C51S.LIB (?C?UIDIV)
         COMMENT TYPE 1: A51 / ASM51 Assembler
  C:\KEIL_V5\C51\LIB\C51S.LIB (?C_INIT)
         COMMENT TYPE 1: A51 / ASM51 Assembler


ACTIVE MEMORY CLASSES OF MODULE:  .\BUILD\TEMPLATE\6-2¾ØÕó¼üÅÌ×öÒ»¸ö¼ÆËãÆ÷ (LCD1602)

BASE        START       END         USED      MEMORY CLASS
==========================================================
C:000000H   C:000000H   C:00FFFFH   0004E8H   CODE
I:000000H   I:000000H   I:00007FH   00001BH   DATA
I:000000H   I:000000H   I:0000FFH   000001H   IDATA


MEMORY MAP OF MODULE:  .\BUILD\TEMPLATE\6-2¾ØÕó¼üÅÌ×öÒ»¸ö¼ÆËãÆ÷ (LCD1602)


START     STOP      LENGTH    ALIGN  RELOC    MEMORY CLASS   SEGMENT NAME
=========================================================================

* * * * * * * * * * *   D A T A   M E M O R Y   * * * * * * * * * * * * *
000000H   000007H   000008H   ---    AT..     DATA           "REG BANK 0"
000008H   000011H   00000AH   BYTE   UNIT     DATA           ?DT?MAIN
000012H   00001AH   000009H   BYTE   UNIT     DATA           _DATA_GROUP_
00001BH   00001BH   000001H   BYTE   UNIT     IDATA          ?STACK

* * * * * * * * * * *   C O D E   M E M O R Y   * * * * * * * * * * * * *
000000H   000002H   000003H   ---    OFFS..   CODE           ?CO??C_STARTUP?0
000003H   0000F6H   0000F4H   BYTE   UNIT     CODE           ?PR?GET_KEY_NUM?MAIN
0000F7H   0001D1H   0000DBH   BYTE   UNIT     CODE           ?PR?MAIN?MAIN
0001D2H   000265H   000094H   BYTE   UNIT     CODE           ?C?LIB_CODE
000266H   0002F1H   00008CH   BYTE   UNIT     CODE           ?C_C51STARTUP
0002F2H   000369H   000078H   BYTE   UNIT     CODE           ?PR?_CONVERT_KEY_TO_ASCII?MAIN
00036AH   0003CBH   000062H   BYTE   UNIT     CODE           ?PR?CALC_RESULT?MAIN
0003CCH   0003FCH   000031H   BYTE   UNIT     CODE           ?PR?_LCD_POW?LCD1602
0003FDH   000420H   000024H   BYTE   UNIT     CODE           ?PR?_LCD_SHOWNUM?LCD1602
000421H   000442H   000022H   BYTE   UNIT     CODE           ?PR?INIT_ALL_GPIO_TO_STD8051_STATUS?MAIN
000443H   000460H   00001EH   BYTE   UNIT     CODE           ?PR?_LCD_WRITEDATA?LCD1602
000461H   00047EH   00001EH   BYTE   UNIT     CODE           ?PR?_LCD_SETCURSOR?LCD1602
00047FH   000497H   000019H   BYTE   UNIT     CODE           ?PR?_DELAY_MS?MAIN
000498H   0004B0H   000019H   BYTE   UNIT     CODE           ?C_INITSEG
0004B1H   0004C4H   000014H   BYTE   UNIT     CODE           ?PR?LCD_INIT?LCD1602
0004C5H   0004D3H   00000FH   BYTE   UNIT     CODE           ?PR?LCD_DELAY?LCD1602
0004D4H   0004DDH   00000AH   BYTE   UNIT     CODE           ?PR?_LCD_WRITECOMMAND?LCD1602
0004DEH   0004E7H   00000AH   BYTE   UNIT     CODE           ?PR?_LCD_SHOWCHAR?LCD1602
LX51 LINKER/LOCATER V4.66.97.0                                                        12/04/2021  21:32:10  PAGE 2



* * * * * * * * *   R E M O V E D     S E G M E N T S   * * * * * * * *
   *DEL*:           000023H   BYTE   UNIT     CODE           ?PR?_LCD_SHOWSTRING?LCD1602
   *DEL*:           000003H   BYTE   UNIT     DATA           ?DT?_LCD_SHOWSTRING?LCD1602
   *DEL*:           00004AH   BYTE   UNIT     CODE           ?PR?_LCD_SHOWSIGNEDNUM?LCD1602
   *DEL*:           000007H   BYTE   UNIT     DATA           ?DT?_LCD_SHOWSIGNEDNUM?LCD1602
   *DEL*:           00004BH   BYTE   UNIT     CODE           ?PR?_LCD_SHOWHEXNUM?LCD1602
   *DEL*:           000005H   BYTE   UNIT     DATA           ?DT?_LCD_SHOWHEXNUM?LCD1602
   *DEL*:           00003DH   BYTE   UNIT     CODE           ?PR?_LCD_SHOWBINNUM?LCD1602
   *DEL*:           000005H   BYTE   UNIT     DATA           ?DT?_LCD_SHOWBINNUM?LCD1602



OVERLAY MAP OF MODULE:   .\BUILD\TEMPLATE\6-2¾ØÕó¼üÅÌ×öÒ»¸ö¼ÆËãÆ÷ (LCD1602)


FUNCTION/MODULE                            BIT_GROUP   DATA_GROUP 
--> CALLED FUNCTION/MODULE                START  STOP  START  STOP
==================================================================
?C_C51STARTUP                             ----- -----  ----- -----
  +--> MAIN/MAIN
  +--> ?C_INITSEG

MAIN/MAIN                                 ----- -----  ----- -----
  +--> INIT_ALL_GPIO_TO_STD8051_STATUS/MAIN
  +--> LCD_INIT/LCD1602
  +--> _DELAY_MS/MAIN
  +--> _LCD_SHOWNUM/LCD1602
  +--> GET_KEY_NUM/MAIN
  +--> _CONVERT_KEY_TO_ASCII/MAIN
  +--> CALC_RESULT/MAIN
  +--> _LCD_SHOWCHAR/LCD1602

INIT_ALL_GPIO_TO_STD8051_STATUS/MAIN      ----- -----  ----- -----

LCD_INIT/LCD1602                          ----- -----  ----- -----
  +--> _LCD_WRITECOMMAND/LCD1602

_LCD_WRITECOMMAND/LCD1602                 ----- -----  ----- -----
  +--> LCD_DELAY/LCD1602

LCD_DELAY/LCD1602                         ----- -----  ----- -----

_DELAY_MS/MAIN                            ----- -----  ----- -----

_LCD_SHOWNUM/LCD1602                      ----- -----  0012H 0016H
  +--> _LCD_SETCURSOR/LCD1602
  +--> _LCD_POW/LCD1602
  +--> _LCD_WRITEDATA/LCD1602

_LCD_SETCURSOR/LCD1602                    ----- -----  ----- -----
  +--> _LCD_WRITECOMMAND/LCD1602

_LCD_POW/LCD1602                          ----- -----  0017H 001AH

_LCD_WRITEDATA/LCD1602                    ----- -----  ----- -----
  +--> LCD_DELAY/LCD1602

GET_KEY_NUM/MAIN                          ----- -----  ----- -----
  +--> _DELAY_MS/MAIN

_CONVERT_KEY_TO_ASCII/MAIN                ----- -----  ----- -----

CALC_RESULT/MAIN                          ----- -----  ----- -----
  +--> _LCD_SHOWCHAR/LCD1602
LX51 LINKER/LOCATER V4.66.97.0                                                        12/04/2021  21:32:10  PAGE 3


  +--> _LCD_SHOWNUM/LCD1602

_LCD_SHOWCHAR/LCD1602                     ----- -----  ----- -----
  +--> _LCD_SETCURSOR/LCD1602
  +--> _LCD_WRITEDATA/LCD1602

?C_INITSEG                                ----- -----  ----- -----



PUBLIC SYMBOLS OF MODULE:  .\BUILD\TEMPLATE\6-2¾ØÕó¼üÅÌ×öÒ»¸ö¼ÆËãÆ÷ (LCD1602)


      VALUE       CLASS    TYPE      PUBLIC SYMBOL NAME
      =================================================
*DEL*:00000000H   DATA     BYTE      ?_LCD_ShowBinNum?BYTE
*DEL*:00000000H   DATA     BYTE      ?_LCD_ShowHexNum?BYTE
      00000012H   DATA     BYTE      ?_LCD_ShowNum?BYTE
*DEL*:00000000H   DATA     BYTE      ?_LCD_ShowSignedNum?BYTE
      010001D2H   CODE     ---       ?C?CLDOPTR
      00000000H   NUMBER   ---       ?C?CODESEG
      010001FFH   CODE     ---       ?C?IMUL
      01000211H   CODE     ---       ?C?UIDIV
      00000000H   NUMBER   ---       ?C?XDATASEG
      010002ADH   CODE     ---       ?C_START
      01000000H   CODE     ---       ?C_STARTUP
      010002F2H   CODE     ---       _convert_key_to_ascii
      01000483H   CODE     ---       _Delay_ms
      010003D6H   CODE     ---       _LCD_Pow
      01000461H   CODE     ---       _LCD_SetCursor
*DEL*:00000000H   CODE     ---       _LCD_ShowBinNum
      010004DEH   CODE     ---       _LCD_ShowChar
*DEL*:00000000H   CODE     ---       _LCD_ShowHexNum
      010003FDH   CODE     ---       _LCD_ShowNum
*DEL*:00000000H   CODE     ---       _LCD_ShowSignedNum
*DEL*:00000000H   CODE     ---       _LCD_ShowString
      010004D4H   CODE     ---       _LCD_WriteCommand
      01000457H   CODE     ---       _LCD_WriteData
      0100036AH   CODE     ---       calc_result
      01000003H   CODE     ---       Get_key_num
      01000421H   CODE     ---       init_all_gpio_to_std8051_status
      0000000DH   DATA     CHAR      input_ascii
      010004CBH   CODE     ---       LCD_Delay
      010004B1H   CODE     ---       LCD_Init
      00000009H   DATA     WORD      line1_num
      0000000BH   DATA     WORD      line2_num
      010000F7H   CODE     ---       main
      00000008H   DATA     BYTE      main_key_num
      00000010H   DATA     BYTE      num_line
      00000011H   DATA     BYTE      operator
      0000000EH   DATA     WORD      result



SYMBOL TABLE OF MODULE:  .\BUILD\TEMPLATE\6-2¾ØÕó¼üÅÌ×öÒ»¸ö¼ÆËãÆ÷ (LCD1602)

      VALUE       REP       CLASS    TYPE      SYMBOL NAME
      ====================================================
      ---         MODULE    ---      ---       LCD1602
      00000012H   PUBLIC    DATA     BYTE      ?_LCD_ShowNum?BYTE
      010003FDH   PUBLIC    CODE     ---       _LCD_ShowNum
      010003D6H   PUBLIC    CODE     ---       _LCD_Pow
      010004DEH   PUBLIC    CODE     ---       _LCD_ShowChar
      010004B1H   PUBLIC    CODE     ---       LCD_Init
      01000461H   PUBLIC    CODE     ---       _LCD_SetCursor
LX51 LINKER/LOCATER V4.66.97.0                                                        12/04/2021  21:32:10  PAGE 4


      01000457H   PUBLIC    CODE     ---       _LCD_WriteData
      010004D4H   PUBLIC    CODE     ---       _LCD_WriteCommand
      010004CBH   PUBLIC    CODE     ---       LCD_Delay

      010004C5H   BLOCK     CODE     ---       LVL=0
      ---         BLOCKEND  ---      ---       LVL=0

      010004CBH   BLOCK     CODE     ---       LVL=0
      010004CBH   BLOCK     CODE     NEAR LAB  LVL=1
      00000007H   SYMBOL    DATA     VOID      i
      00000006H   SYMBOL    DATA     VOID      j
      ---         BLOCKEND  ---      ---       LVL=1
      ---         BLOCKEND  ---      ---       LVL=0

      010004D4H   BLOCK     CODE     ---       LVL=0
      ---         BLOCKEND  ---      ---       LVL=0

      01000443H   BLOCK     CODE     ---       LVL=0
      ---         BLOCKEND  ---      ---       LVL=0

      01000457H   BLOCK     CODE     ---       LVL=0
      ---         BLOCKEND  ---      ---       LVL=0

      01000461H   BLOCK     CODE     ---       LVL=0
      ---         BLOCKEND  ---      ---       LVL=0

      010004B1H   BLOCK     CODE     ---       LVL=0
      ---         BLOCKEND  ---      ---       LVL=0

      010004DEH   BLOCK     CODE     ---       LVL=0
      ---         BLOCKEND  ---      ---       LVL=0
      00000005H   SYMBOL    DATA     VOID      i

      010003CCH   BLOCK     CODE     ---       LVL=0
      ---         BLOCKEND  ---      ---       LVL=0

      010003D6H   BLOCK     CODE     ---       LVL=0
      010003DEH   BLOCK     CODE     NEAR LAB  LVL=1
      00000003H   SYMBOL    DATA     VOID      i
      00000006H   SYMBOL    DATA     VOID      Result
      ---         BLOCKEND  ---      ---       LVL=1
      ---         BLOCKEND  ---      ---       LVL=0

      010003FDH   BLOCK     CODE     ---       LVL=0
      01000401H   BLOCK     CODE     NEAR LAB  LVL=1
      00000002H   SYMBOL    DATA     VOID      i
      ---         BLOCKEND  ---      ---       LVL=1
      ---         BLOCKEND  ---      ---       LVL=0
      00000002H   SYMBOL    DATA     VOID      i
      00000002H   SYMBOL    DATA     VOID      i
      00000006H   SYMBOL    DATA     VOID      SingleNumber
      00000002H   SYMBOL    DATA     VOID      i

      ---         MODULE    ---      ---       MAIN
      00000011H   PUBLIC    DATA     BYTE      operator
      00000010H   PUBLIC    DATA     BYTE      num_line
      0000000EH   PUBLIC    DATA     WORD      result
      0000000DH   PUBLIC    DATA     CHAR      input_ascii
      0000000BH   PUBLIC    DATA     WORD      line2_num
      00000009H   PUBLIC    DATA     WORD      line1_num
      00000008H   PUBLIC    DATA     BYTE      main_key_num
      010000F7H   PUBLIC    CODE     ---       main
      0100036AH   PUBLIC    CODE     ---       calc_result
      010002F2H   PUBLIC    CODE     ---       _convert_key_to_ascii
      01000003H   PUBLIC    CODE     ---       Get_key_num
LX51 LINKER/LOCATER V4.66.97.0                                                        12/04/2021  21:32:10  PAGE 5


      01000483H   PUBLIC    CODE     ---       _Delay_ms
      01000421H   PUBLIC    CODE     ---       init_all_gpio_to_std8051_status

      01000421H   BLOCK     CODE     ---       LVL=0
      ---         BLOCKEND  ---      ---       LVL=0

      0100047FH   BLOCK     CODE     ---       LVL=0
      ---         BLOCKEND  ---      ---       LVL=0

      01000483H   BLOCK     CODE     ---       LVL=0
      01000483H   BLOCK     CODE     NEAR LAB  LVL=1
      00000005H   SYMBOL    DATA     VOID      i
      00000004H   SYMBOL    DATA     VOID      j
      ---         BLOCKEND  ---      ---       LVL=1
      ---         BLOCKEND  ---      ---       LVL=0

      01000003H   BLOCK     CODE     ---       LVL=0
      01000003H   BLOCK     CODE     NEAR LAB  LVL=1
      00000003H   SYMBOL    DATA     VOID      key_num
      ---         BLOCKEND  ---      ---       LVL=1
      ---         BLOCKEND  ---      ---       LVL=0

      010002F2H   BLOCK     CODE     ---       LVL=0
      ---         BLOCKEND  ---      ---       LVL=0

      0100036AH   BLOCK     CODE     ---       LVL=0
      ---         BLOCKEND  ---      ---       LVL=0

      010000F7H   BLOCK     CODE     ---       LVL=0
      ---         BLOCKEND  ---      ---       LVL=0

      ---         MODULE    ---      ---       ?C_STARTUP
      01000000H   PUBLIC    CODE     ---       ?C_STARTUP

      ---         MODULE    ---      ---       ?C?CLDOPTR
      010001D2H   PUBLIC    CODE     ---       ?C?CLDOPTR

      ---         MODULE    ---      ---       ?C?IMUL
      010001FFH   PUBLIC    CODE     ---       ?C?IMUL

      ---         MODULE    ---      ---       ?C?UIDIV
      01000211H   PUBLIC    CODE     ---       ?C?UIDIV

      ---         MODULE    ---      ---       ?C_INIT
      010002ADH   PUBLIC    CODE     ---       ?C_START

Program Size: data=28.0 xdata=0 const=0 code=1256
LX51 RUN COMPLETE.  0 WARNING(S),  0 ERROR(S)
