LX51 LINKER/LOCATER V4.66.97.0                                                          12/11/2021  16:08:26  PAGE 1


LX51 LINKER/LOCATER V4.66.97.0, INVOKED BY:
C:\KEIL_V5\C51\BIN\LX51.EXE .\BUILD\TEMPLATE\USER\LCD1602.O, .\BUILD\TEMPLATE\USER\MAIN.O TO .\BUILD\TEMPLATE\11-1AT24C0
>> 2EEPROM读写使用IIC总线 PRINT (.\build\template\11-1AT24C02EEPROM读写使用IIC总线.map) REMOVEUNUSED


CPU MODE:     8051 MODE
MEMORY MODEL: SMALL


INPUT MODULES INCLUDED:
  .\BUILD\TEMPLATE\USER\LCD1602.O (LCD1602)
         COMMENT TYPE 0: C51 V9.60.0.0
  .\BUILD\TEMPLATE\USER\MAIN.O (MAIN)
         COMMENT TYPE 0: C51 V9.60.0.0
  C:\KEIL_V5\C51\LIB\C51S.LIB (?C_STARTUP)
         COMMENT TYPE 1: A51 / ASM51 Assembler
  C:\KEIL_V5\C51\LIB\C51S.LIB (?C?CLDOPTR)
         COMMENT TYPE 1: A51 / ASM51 Assembler
  C:\KEIL_V5\C51\LIB\C51S.LIB (?C?IMUL)
         COMMENT TYPE 1: A51 / ASM51 Assembler
  C:\KEIL_V5\C51\LIB\C51S.LIB (?C?UIDIV)
         COMMENT TYPE 1: A51 / ASM51 Assembler
  C:\KEIL_V5\C51\LIB\C51S.LIB (?C_INIT)
         COMMENT TYPE 1: A51 / ASM51 Assembler


ACTIVE MEMORY CLASSES OF MODULE:  .\BUILD\TEMPLATE\11-1AT24C02EEPROM读写使用IIC总线 (LCD1602)

BASE        START       END         USED      MEMORY CLASS
==========================================================
C:000000H   C:000000H   C:00FFFFH   000451H   CODE
I:000000H   I:000000H   I:00007FH   000012H   DATA
C:000000H   C:000000H   C:00FFFFH   000019H   CONST
I:000000H   I:000000H   I:0000FFH   000001H   IDATA


MEMORY MAP OF MODULE:  .\BUILD\TEMPLATE\11-1AT24C02EEPROM读写使用IIC总线 (LCD1602)


START     STOP      LENGTH    ALIGN  RELOC    MEMORY CLASS   SEGMENT NAME
=========================================================================

* * * * * * * * * * *   D A T A   M E M O R Y   * * * * * * * * * * * * *
000000H   000007H   000008H   ---    AT..     DATA           "REG BANK 0"
000008H   00000FH   000008H   BYTE   UNIT     DATA           _DATA_GROUP_
000010H   000011H   000002H   BYTE   UNIT     DATA           ?DT?MAIN
000012H   000012H   000001H   BYTE   UNIT     IDATA          ?STACK

* * * * * * * * * * *   C O D E   M E M O R Y   * * * * * * * * * * * * *
000000H   000002H   000003H   ---    OFFS..   CODE           ?CO??C_STARTUP?0
000003H   000096H   000094H   BYTE   UNIT     CODE           ?C?LIB_CODE
000097H   000122H   00008CH   BYTE   UNIT     CODE           ?C_C51STARTUP
000123H   0001A7H   000085H   BYTE   UNIT     CODE           ?PR?MAIN?MAIN
0001A8H   0001F8H   000051H   BYTE   UNIT     CODE           ?PR?_SW_I2C_SENDSLAVEADDRESS_AND_RW_THEN_GETACKBIT?MAIN
0001F9H   000235H   00003DH   BYTE   UNIT     CODE           ?PR?SW_I2C_RECEIVEBYTE?MAIN
000236H   00026FH   00003AH   BYTE   UNIT     CODE           ?PR?_SW_I2C_SENDBYTE_THEN_GETACKBIT?MAIN
000270H   0002A2H   000033H   BYTE   UNIT     CODE           ?PR?_AT24C02_WRITE_MULTI_BYTES?MAIN
0002A3H   0002D4H   000032H   BYTE   UNIT     CODE           ?PR?GET_ONBOARD_KEY_NUM?MAIN
0002D5H   0002FAH   000026H   BYTE   UNIT     CODE           ?PR?_AT24C02_READ_BYTE?MAIN
0002FBH   00031DH   000023H   BYTE   UNIT     CODE           ?PR?_LCD_SHOWSTRING?LCD1602
00031EH   00033FH   000022H   BYTE   UNIT     CODE           ?PR?INIT_ALL_GPIO_TO_STD8051_STATUS?MAIN
000340H   00035DH   00001EH   BYTE   UNIT     CODE           ?PR?_LCD_WRITEDATA?LCD1602
00035EH   00037BH   00001EH   BYTE   UNIT     CODE           ?PR?_LCD_SETCURSOR?LCD1602
00037CH   000396H   00001BH   BYTE   UNIT     CODE           ?PR?_DELAYXMS_AT44983?MAIN
000397H   0003ADH   000017H   BYTE   UNIT     CODE           ?PR?LCD_INIT?LCD1602
0003AEH   0003C4H   000017H   BYTE   UNIT     CODE           ?PR?_AT24C02_WRITE_BYTE?MAIN
LX51 LINKER/LOCATER V4.66.97.0                                                        12/11/2021  16:08:26  PAGE 2


0003C5H   0003D9H   000015H   BYTE   UNIT     CODE           ?PR?DELAY6US?MAIN
0003DAH   0003EAH   000011H   BYTE   UNIT     CODE           ?PR?DELAY18US?MAIN
0003EBH   0003FAH   000010H   BYTE   UNIT     CODE           ?PR?DELAY2MS?MAIN
0003FBH   000409H   00000FH   BYTE   UNIT     CODE           ?PR?LCD_DELAY?LCD1602
00040AH   000418H   00000FH   BYTE   UNIT     CODE           ?PR?SW_I2C_STARTBIT?MAIN
000419H   000427H   00000FH   BYTE   UNIT     CODE           ?PR?SW_I2C_STOPBIT?MAIN
000428H   000431H   00000AH   BYTE   UNIT     CODE           ?PR?_LCD_WRITECOMMAND?LCD1602
000432H   00043BH   00000AH   BYTE   UNIT     CODE           ?PR?_LCD_SHOWCHAR?LCD1602
00043CH   000444H   000009H   BYTE   UNIT     CODE           ?PR?DELAY160US?MAIN
000445H   00044BH   000007H   BYTE   UNIT     CODE           ?C_INITSEG
00044CH   000450H   000005H   BYTE   UNIT     CODE           ?PR?DELAY12US?MAIN
000451H   000469H   000019H   BYTE   UNIT     CONST          ?CO?MAIN

* * * * * * * * *   R E M O V E D     S E G M E N T S   * * * * * * * *
   *DEL*:           000031H   BYTE   UNIT     CODE           ?PR?_LCD_POW?LCD1602
   *DEL*:           000004H   BYTE   UNIT     DATA           ?DT?_LCD_POW?LCD1602
   *DEL*:           000024H   BYTE   UNIT     CODE           ?PR?_LCD_SHOWNUM?LCD1602
   *DEL*:           000005H   BYTE   UNIT     DATA           ?DT?_LCD_SHOWNUM?LCD1602
   *DEL*:           00004AH   BYTE   UNIT     CODE           ?PR?_LCD_SHOWSIGNEDNUM?LCD1602
   *DEL*:           000007H   BYTE   UNIT     DATA           ?DT?_LCD_SHOWSIGNEDNUM?LCD1602
   *DEL*:           00004BH   BYTE   UNIT     CODE           ?PR?_LCD_SHOWHEXNUM?LCD1602
   *DEL*:           000005H   BYTE   UNIT     DATA           ?DT?_LCD_SHOWHEXNUM?LCD1602
   *DEL*:           00003DH   BYTE   UNIT     CODE           ?PR?_LCD_SHOWBINNUM?LCD1602
   *DEL*:           000005H   BYTE   UNIT     DATA           ?DT?_LCD_SHOWBINNUM?LCD1602



OVERLAY MAP OF MODULE:   .\BUILD\TEMPLATE\11-1AT24C02EEPROM读写使用IIC总线 (LCD1602)


FUNCTION/MODULE                                BIT_GROUP   DATA_GROUP 
--> CALLED FUNCTION/MODULE                    START  STOP  START  STOP
======================================================================
?C_C51STARTUP                                 ----- -----  ----- -----
  +--> MAIN/MAIN
  +--> ?C_INITSEG

MAIN/MAIN                                     ----- -----  0008H 000BH
  +--> _DELAYXMS_AT44983/MAIN
  +--> INIT_ALL_GPIO_TO_STD8051_STATUS/MAIN
  +--> LCD_INIT/LCD1602
  +--> _LCD_SHOWSTRING/LCD1602
  +--> GET_ONBOARD_KEY_NUM/MAIN
  +--> _AT24C02_WRITE_MULTI_BYTES/MAIN
  +--> _AT24C02_WRITE_BYTE/MAIN
  +--> _AT24C02_READ_BYTE/MAIN
  +--> _LCD_SHOWCHAR/LCD1602

_DELAYXMS_AT44983/MAIN                        ----- -----  ----- -----

INIT_ALL_GPIO_TO_STD8051_STATUS/MAIN          ----- -----  ----- -----

LCD_INIT/LCD1602                              ----- -----  ----- -----
  +--> _LCD_WRITECOMMAND/LCD1602
  +--> LCD_DELAY/LCD1602

_LCD_WRITECOMMAND/LCD1602                     ----- -----  ----- -----
  +--> LCD_DELAY/LCD1602

LCD_DELAY/LCD1602                             ----- -----  ----- -----

_LCD_SHOWSTRING/LCD1602                       ----- -----  000CH 000EH
  +--> _LCD_SETCURSOR/LCD1602
  +--> _LCD_WRITEDATA/LCD1602

LX51 LINKER/LOCATER V4.66.97.0                                                        12/11/2021  16:08:26  PAGE 3


_LCD_SETCURSOR/LCD1602                        ----- -----  ----- -----
  +--> _LCD_WRITECOMMAND/LCD1602

_LCD_WRITEDATA/LCD1602                        ----- -----  ----- -----
  +--> LCD_DELAY/LCD1602

GET_ONBOARD_KEY_NUM/MAIN                      ----- -----  ----- -----
  +--> _DELAYXMS_AT44983/MAIN

_AT24C02_WRITE_MULTI_BYTES/MAIN               ----- -----  000CH 000FH
  +--> _SW_I2C_SENDSLAVEADDRESS_AND_RW_THEN_GETACKBIT/MAIN
  +--> _SW_I2C_SENDBYTE_THEN_GETACKBIT/MAIN
  +--> DELAY2MS/MAIN

_SW_I2C_SENDSLAVEADDRESS_AND_RW_THEN_GET+     ----- -----  ----- -----
... ACKBIT/MAIN
  +--> SW_I2C_STARTBIT/MAIN
  +--> DELAY6US/MAIN
  +--> DELAY18US/MAIN

SW_I2C_STARTBIT/MAIN                          ----- -----  ----- -----
  +--> DELAY6US/MAIN

DELAY6US/MAIN                                 ----- -----  ----- -----

DELAY18US/MAIN                                ----- -----  ----- -----
  +--> DELAY12US/MAIN

DELAY12US/MAIN                                ----- -----  ----- -----

_SW_I2C_SENDBYTE_THEN_GETACKBIT/MAIN          ----- -----  ----- -----
  +--> DELAY6US/MAIN
  +--> DELAY18US/MAIN

DELAY2MS/MAIN                                 ----- -----  ----- -----
  +--> SW_I2C_STOPBIT/MAIN

SW_I2C_STOPBIT/MAIN                           ----- -----  ----- -----
  +--> DELAY6US/MAIN

_AT24C02_WRITE_BYTE/MAIN                      ----- -----  ----- -----
  +--> _SW_I2C_SENDSLAVEADDRESS_AND_RW_THEN_GETACKBIT/MAIN
  +--> _SW_I2C_SENDBYTE_THEN_GETACKBIT/MAIN
  +--> DELAY2MS/MAIN

_AT24C02_READ_BYTE/MAIN                       ----- -----  ----- -----
  +--> _SW_I2C_SENDSLAVEADDRESS_AND_RW_THEN_GETACKBIT/MAIN
  +--> _SW_I2C_SENDBYTE_THEN_GETACKBIT/MAIN
  +--> SW_I2C_STOPBIT/MAIN
  +--> DELAY160US/MAIN
  +--> SW_I2C_STARTBIT/MAIN
  +--> DELAY2MS/MAIN
  +--> SW_I2C_RECEIVEBYTE/MAIN

DELAY160US/MAIN                               ----- -----  ----- -----

SW_I2C_RECEIVEBYTE/MAIN                       ----- -----  ----- -----
  +--> DELAY2MS/MAIN
  +--> DELAY6US/MAIN

_LCD_SHOWCHAR/LCD1602                         ----- -----  ----- -----
  +--> _LCD_SETCURSOR/LCD1602
  +--> _LCD_WRITEDATA/LCD1602

?C_INITSEG                                    ----- -----  ----- -----
LX51 LINKER/LOCATER V4.66.97.0                                                        12/11/2021  16:08:26  PAGE 4





PUBLIC SYMBOLS OF MODULE:  .\BUILD\TEMPLATE\11-1AT24C02EEPROM读写使用IIC总线 (LCD1602)


      VALUE       CLASS    TYPE      PUBLIC SYMBOL NAME
      =================================================
*DEL*:00000000H   DATA     BYTE      ?_LCD_ShowBinNum?BYTE
*DEL*:00000000H   DATA     BYTE      ?_LCD_ShowHexNum?BYTE
*DEL*:00000000H   DATA     BYTE      ?_LCD_ShowNum?BYTE
*DEL*:00000000H   DATA     BYTE      ?_LCD_ShowSignedNum?BYTE
      01000003H   CODE     ---       ?C?CLDOPTR
      00000000H   NUMBER   ---       ?C?CODESEG
      01000030H   CODE     ---       ?C?IMUL
      01000042H   CODE     ---       ?C?UIDIV
      00000000H   NUMBER   ---       ?C?XDATASEG
      010000DEH   CODE     ---       ?C_START
      01000000H   CODE     ---       ?C_STARTUP
      010002D5H   CODE     ---       _AT24C02_Read_byte
      010003AEH   CODE     ---       _AT24C02_Write_Byte
      01000270H   CODE     ---       _AT24C02_Write_Multi_Bytes
      01000380H   CODE     ---       _DelayXms_AT44983
*DEL*:0000000AH   CODE     ---       _LCD_Pow
      0100035EH   CODE     ---       _LCD_SetCursor
*DEL*:00000000H   CODE     ---       _LCD_ShowBinNum
      01000432H   CODE     ---       _LCD_ShowChar
*DEL*:00000000H   CODE     ---       _LCD_ShowHexNum
*DEL*:00000000H   CODE     ---       _LCD_ShowNum
*DEL*:00000000H   CODE     ---       _LCD_ShowSignedNum
      010002FBH   CODE     ---       _LCD_ShowString
      01000428H   CODE     ---       _LCD_WriteCommand
      01000354H   CODE     ---       _LCD_WriteData
      01000236H   CODE     ---       _SW_I2C_SendByte_then_getAckBit
      010001B1H   CODE     ---       _SW_I2C_SendSlaveAddress_and_RW_then_getAckBit
      00000010H   DATA     BYTE      at24c02_address
      00000011H   DATA     BYTE      Data
      0100044CH   CODE     ---       Delay12us
      0100043CH   CODE     ---       Delay160us
      010003E1H   CODE     ---       Delay18us
      010003F1H   CODE     ---       Delay2ms
      010003D5H   CODE     ---       Delay6us
      010002A3H   CODE     ---       Get_onboard_key_num
      0100031EH   CODE     ---       init_all_gpio_to_std8051_status
      01000401H   CODE     ---       LCD_Delay
      01000397H   CODE     ---       LCD_Init
      01000123H   CODE     ---       main
      010001F9H   CODE     ---       SW_I2C_ReceiveByte
      0100040AH   CODE     ---       SW_I2C_StartBit
      01000419H   CODE     ---       SW_I2C_StopBit



SYMBOL TABLE OF MODULE:  .\BUILD\TEMPLATE\11-1AT24C02EEPROM读写使用IIC总线 (LCD1602)

      VALUE       REP       CLASS    TYPE      SYMBOL NAME
      ====================================================
      ---         MODULE    ---      ---       LCD1602
      010002FBH   PUBLIC    CODE     ---       _LCD_ShowString
      01000432H   PUBLIC    CODE     ---       _LCD_ShowChar
      01000397H   PUBLIC    CODE     ---       LCD_Init
      0100035EH   PUBLIC    CODE     ---       _LCD_SetCursor
      01000354H   PUBLIC    CODE     ---       _LCD_WriteData
      01000428H   PUBLIC    CODE     ---       _LCD_WriteCommand
      01000401H   PUBLIC    CODE     ---       LCD_Delay
LX51 LINKER/LOCATER V4.66.97.0                                                        12/11/2021  16:08:26  PAGE 5



      010003FBH   BLOCK     CODE     ---       LVL=0
      ---         BLOCKEND  ---      ---       LVL=0

      01000401H   BLOCK     CODE     ---       LVL=0
      01000401H   BLOCK     CODE     NEAR LAB  LVL=1
      00000007H   SYMBOL    DATA     VOID      i
      00000006H   SYMBOL    DATA     VOID      j
      ---         BLOCKEND  ---      ---       LVL=1
      ---         BLOCKEND  ---      ---       LVL=0

      01000428H   BLOCK     CODE     ---       LVL=0
      ---         BLOCKEND  ---      ---       LVL=0

      01000340H   BLOCK     CODE     ---       LVL=0
      ---         BLOCKEND  ---      ---       LVL=0

      01000354H   BLOCK     CODE     ---       LVL=0
      ---         BLOCKEND  ---      ---       LVL=0

      0100035EH   BLOCK     CODE     ---       LVL=0
      ---         BLOCKEND  ---      ---       LVL=0

      01000397H   BLOCK     CODE     ---       LVL=0
      ---         BLOCKEND  ---      ---       LVL=0

      01000432H   BLOCK     CODE     ---       LVL=0
      ---         BLOCKEND  ---      ---       LVL=0

      010002FBH   BLOCK     CODE     ---       LVL=0
      01000301H   BLOCK     CODE     NEAR LAB  LVL=1
      00000005H   SYMBOL    DATA     VOID      i
      ---         BLOCKEND  ---      ---       LVL=1
      ---         BLOCKEND  ---      ---       LVL=0
      00000003H   SYMBOL    DATA     VOID      i
      00000006H   SYMBOL    DATA     VOID      Result
      00000002H   SYMBOL    DATA     VOID      i
      00000002H   SYMBOL    DATA     VOID      i
      00000002H   SYMBOL    DATA     VOID      i
      00000006H   SYMBOL    DATA     VOID      SingleNumber
      00000002H   SYMBOL    DATA     VOID      i

      ---         MODULE    ---      ---       MAIN
      00000011H   PUBLIC    DATA     BYTE      Data
      00000010H   PUBLIC    DATA     BYTE      at24c02_address
      01000123H   PUBLIC    CODE     ---       main
      01000270H   PUBLIC    CODE     ---       _AT24C02_Write_Multi_Bytes
      010003AEH   PUBLIC    CODE     ---       _AT24C02_Write_Byte
      010002D5H   PUBLIC    CODE     ---       _AT24C02_Read_byte
      010001F9H   PUBLIC    CODE     ---       SW_I2C_ReceiveByte
      01000236H   PUBLIC    CODE     ---       _SW_I2C_SendByte_then_getAckBit
      010001B1H   PUBLIC    CODE     ---       _SW_I2C_SendSlaveAddress_and_RW_then_getAckBit
      01000419H   PUBLIC    CODE     ---       SW_I2C_StopBit
      0100040AH   PUBLIC    CODE     ---       SW_I2C_StartBit
      010003F1H   PUBLIC    CODE     ---       Delay2ms
      0100043CH   PUBLIC    CODE     ---       Delay160us
      0100044CH   PUBLIC    CODE     ---       Delay12us
      010003E1H   PUBLIC    CODE     ---       Delay18us
      010003D5H   PUBLIC    CODE     ---       Delay6us
      010002A3H   PUBLIC    CODE     ---       Get_onboard_key_num
      01000380H   PUBLIC    CODE     ---       _DelayXms_AT44983
      0100031EH   PUBLIC    CODE     ---       init_all_gpio_to_std8051_status

      0100031EH   BLOCK     CODE     ---       LVL=0
      ---         BLOCKEND  ---      ---       LVL=0
LX51 LINKER/LOCATER V4.66.97.0                                                        12/11/2021  16:08:26  PAGE 6



      0100037CH   BLOCK     CODE     ---       LVL=0
      ---         BLOCKEND  ---      ---       LVL=0

      01000380H   BLOCK     CODE     ---       LVL=0
      01000380H   BLOCK     CODE     NEAR LAB  LVL=1
      00000005H   SYMBOL    DATA     VOID      i
      00000004H   SYMBOL    DATA     VOID      j
      ---         BLOCKEND  ---      ---       LVL=1
      ---         BLOCKEND  ---      ---       LVL=0

      010002A3H   BLOCK     CODE     ---       LVL=0
      010002A3H   BLOCK     CODE     NEAR LAB  LVL=1
      00000003H   SYMBOL    DATA     VOID      key_num
      ---         BLOCKEND  ---      ---       LVL=1
      ---         BLOCKEND  ---      ---       LVL=0

      010003C5H   BLOCK     CODE     ---       LVL=0
      ---         BLOCKEND  ---      ---       LVL=0

      010003D5H   BLOCK     CODE     ---       LVL=0
      010003D5H   BLOCK     CODE     NEAR LAB  LVL=1
      00000007H   SYMBOL    DATA     VOID      i
      ---         BLOCKEND  ---      ---       LVL=1
      ---         BLOCKEND  ---      ---       LVL=0

      010003DAH   BLOCK     CODE     ---       LVL=0
      ---         BLOCKEND  ---      ---       LVL=0

      010003E1H   BLOCK     CODE     ---       LVL=0
      010003E1H   BLOCK     CODE     NEAR LAB  LVL=1
      00000007H   SYMBOL    DATA     VOID      i
      00000006H   SYMBOL    DATA     VOID      j
      ---         BLOCKEND  ---      ---       LVL=1
      ---         BLOCKEND  ---      ---       LVL=0

      0100044CH   BLOCK     CODE     ---       LVL=0
      0100044CH   BLOCK     CODE     NEAR LAB  LVL=1
      00000007H   SYMBOL    DATA     VOID      i
      ---         BLOCKEND  ---      ---       LVL=1
      ---         BLOCKEND  ---      ---       LVL=0

      0100043CH   BLOCK     CODE     ---       LVL=0
      0100043CH   BLOCK     CODE     NEAR LAB  LVL=1
      00000007H   SYMBOL    DATA     VOID      i
      00000006H   SYMBOL    DATA     VOID      j
      ---         BLOCKEND  ---      ---       LVL=1
      ---         BLOCKEND  ---      ---       LVL=0

      010003EBH   BLOCK     CODE     ---       LVL=0
      ---         BLOCKEND  ---      ---       LVL=0

      010003F1H   BLOCK     CODE     ---       LVL=0
      010003F1H   BLOCK     CODE     NEAR LAB  LVL=1
      00000007H   SYMBOL    DATA     VOID      i
      00000006H   SYMBOL    DATA     VOID      j
      ---         BLOCKEND  ---      ---       LVL=1
      ---         BLOCKEND  ---      ---       LVL=0

      0100040AH   BLOCK     CODE     ---       LVL=0
      ---         BLOCKEND  ---      ---       LVL=0

      01000419H   BLOCK     CODE     ---       LVL=0
      ---         BLOCKEND  ---      ---       LVL=0

LX51 LINKER/LOCATER V4.66.97.0                                                        12/11/2021  16:08:26  PAGE 7


      010001A8H   BLOCK     CODE     ---       LVL=0
      ---         BLOCKEND  ---      ---       LVL=0

      010001B1H   BLOCK     CODE     ---       LVL=0
      010001B3H   BLOCK     CODE     NEAR LAB  LVL=1
      00000006H   SYMBOL    DATA     VOID      AckBit
      00000003H   SYMBOL    DATA     VOID      i
      ---         BLOCKEND  ---      ---       LVL=1
      ---         BLOCKEND  ---      ---       LVL=0

      01000236H   BLOCK     CODE     ---       LVL=0
      01000238H   BLOCK     CODE     NEAR LAB  LVL=1
      00000005H   SYMBOL    DATA     VOID      AckBit
      00000003H   SYMBOL    DATA     VOID      i
      ---         BLOCKEND  ---      ---       LVL=1
      ---         BLOCKEND  ---      ---       LVL=0

      010001F9H   BLOCK     CODE     ---       LVL=0
      010001F9H   BLOCK     CODE     NEAR LAB  LVL=1
      00000006H   SYMBOL    DATA     VOID      i
      00000005H   SYMBOL    DATA     VOID      Dat
      ---         BLOCKEND  ---      ---       LVL=1
      ---         BLOCKEND  ---      ---       LVL=0

      010002D5H   BLOCK     CODE     ---       LVL=0
      010002D5H   BLOCK     CODE     NEAR LAB  LVL=1
      00000006H   SYMBOL    DATA     VOID      Dat
      ---         BLOCKEND  ---      ---       LVL=1
      ---         BLOCKEND  ---      ---       LVL=0

      010003AEH   BLOCK     CODE     ---       LVL=0
      ---         BLOCKEND  ---      ---       LVL=0

      01000270H   BLOCK     CODE     ---       LVL=0
      01000278H   BLOCK     CODE     NEAR LAB  LVL=1
      00000004H   SYMBOL    DATA     VOID      i
      ---         BLOCKEND  ---      ---       LVL=1
      ---         BLOCKEND  ---      ---       LVL=0

      01000123H   BLOCK     CODE     ---       LVL=0
      01000123H   BLOCK     CODE     NEAR LAB  LVL=1
      00000008H   SYMBOL    DATA     VOID      str_ptr
      00000009H   SYMBOL    DATA     VOID      i
      0000000BH   SYMBOL    DATA     VOID      key
      ---         BLOCKEND  ---      ---       LVL=1
      ---         BLOCKEND  ---      ---       LVL=0

      ---         MODULE    ---      ---       ?C_STARTUP
      01000000H   PUBLIC    CODE     ---       ?C_STARTUP

      ---         MODULE    ---      ---       ?C?CLDOPTR
      01000003H   PUBLIC    CODE     ---       ?C?CLDOPTR

      ---         MODULE    ---      ---       ?C?IMUL
      01000030H   PUBLIC    CODE     ---       ?C?IMUL

      ---         MODULE    ---      ---       ?C?UIDIV
      01000042H   PUBLIC    CODE     ---       ?C?UIDIV

      ---         MODULE    ---      ---       ?C_INIT
      010000DEH   PUBLIC    CODE     ---       ?C_START

Program Size: data=19.0 xdata=0 const=25 code=1105
LX51 RUN COMPLETE.  0 WARNING(S),  0 ERROR(S)
